target datalayout = "e-m:e-p270:32:32-p271:32:32-p272:64:64-i64:64-i128:128-f80:128-n8:16:32:64-S128"
target triple = "x86_64-pc-linux-gnu"

%"class.std::__cxx11::basic_string" = type { %"struct.std::__cxx11::basic_string<char>::_Alloc_hider", i64, %union.anon }
%"struct.std::__cxx11::basic_string<char>::_Alloc_hider" = type { ptr }
%union.anon = type { i64, [8 x i8] }
%"class.std::__shared_count" = type { ptr }
%"struct.rocksdb::EnvOptions" = type { i8, i8, i8, i8, i8, i8, i64, i8, i8, i64, i64, ptr }
%"class.std::__shared_ptr.59" = type { ptr, %"class.std::__shared_count" }
%"struct.rocksdb::DBOptions" = type <{ i8, i8, i8, i8, i8, i8, i8, i8, i8, [7 x i8], ptr, %"class.std::shared_ptr.61", %"class.std::shared_ptr.64", %"class.std::shared_ptr.58", i8, [3 x i8], i32, i32, [4 x i8], i64, %"class.std::shared_ptr.67", i8, [7 x i8], %"class.std::vector.70", %"class.std::__cxx11::basic_string", %"class.std::__cxx11::basic_string", i64, i32, i32, i32, i32, i64, i64, i64, i64, i64, i32, [4 x i8], i64, i64, i64, i8, i8, i8, i8, i8, i8, [2 x i8], i32, i32, i8, [7 x i8], i64, i8, [7 x i8], i64, %"class.std::shared_ptr.75", i64, i64, i8, [7 x i8], i64, i64, i8, [7 x i8], %"class.std::vector.78", i8, [7 x i8], i64, i8, i8, i8, i8, [4 x i8], i64, i64, i64, i8, i8, i8, i8, [4 x i8], %"class.std::shared_ptr.83", ptr, i8, i8, i8, i8, i8, i8, i8, i8, i8, i8, i8, i8, i8, i8, [2 x i8], i64, %"class.std::shared_ptr.86", i8, [3 x i8], i32, i64, i8, [7 x i8], %"class.std::__cxx11::basic_string", %"class.rocksdb::SmallEnumSet", %"class.std::shared_ptr.89", i8, i8, [6 x i8], %"class.std::__cxx11::basic_string", i64, i64, i64, i8, i8, [6 x i8] }>
%"class.std::shared_ptr.61" = type { %"class.std::__shared_ptr.62" }
%"class.std::__shared_ptr.62" = type { ptr, %"class.std::__shared_count" }
%"class.std::shared_ptr.64" = type { %"class.std::__shared_ptr.65" }
%"class.std::__shared_ptr.65" = type { ptr, %"class.std::__shared_count" }
%"class.std::shared_ptr.58" = type { %"class.std::__shared_ptr.59" }
%"class.std::shared_ptr.67" = type { %"class.std::__shared_ptr.68" }
%"class.std::__shared_ptr.68" = type { ptr, %"class.std::__shared_count" }
%"class.std::vector.70" = type { %"struct.std::_Vector_base.71" }
%"struct.std::_Vector_base.71" = type { %"struct.std::_Vector_base<rocksdb::DbPath, std::allocator<rocksdb::DbPath>>::_Vector_impl" }
%"struct.std::_Vector_base<rocksdb::DbPath, std::allocator<rocksdb::DbPath>>::_Vector_impl" = type { %"struct.std::_Vector_base<rocksdb::DbPath, std::allocator<rocksdb::DbPath>>::_Vector_impl_data" }
%"struct.std::_Vector_base<rocksdb::DbPath, std::allocator<rocksdb::DbPath>>::_Vector_impl_data" = type { ptr, ptr, ptr }
%"class.std::shared_ptr.75" = type { %"class.std::__shared_ptr.76" }
%"class.std::__shared_ptr.76" = type { ptr, %"class.std::__shared_count" }
%"class.std::vector.78" = type { %"struct.std::_Vector_base.79" }
%"struct.std::_Vector_base.79" = type { %"struct.std::_Vector_base<std::shared_ptr<rocksdb::EventListener>, std::allocator<std::shared_ptr<rocksdb::EventListener>>>::_Vector_impl" }
%"struct.std::_Vector_base<std::shared_ptr<rocksdb::EventListener>, std::allocator<std::shared_ptr<rocksdb::EventListener>>>::_Vector_impl" = type { %"struct.std::_Vector_base<std::shared_ptr<rocksdb::EventListener>, std::allocator<std::shared_ptr<rocksdb::EventListener>>>::_Vector_impl_data" }
%"struct.std::_Vector_base<std::shared_ptr<rocksdb::EventListener>, std::allocator<std::shared_ptr<rocksdb::EventListener>>>::_Vector_impl_data" = type { ptr, ptr, ptr }
%"class.std::shared_ptr.83" = type { %"class.std::__shared_ptr.84" }
%"class.std::__shared_ptr.84" = type { ptr, %"class.std::__shared_count" }
%"class.std::shared_ptr.86" = type { %"class.std::__shared_ptr.87" }
%"class.std::__shared_ptr.87" = type { ptr, %"class.std::__shared_count" }
%"class.rocksdb::SmallEnumSet" = type { i64 }
%"class.std::shared_ptr.89" = type { %"class.std::__shared_ptr.90" }
%"class.std::__shared_ptr.90" = type { ptr, %"class.std::__shared_count" }

; Function Attrs: mustprogress nounwind uwtable
define linkonce_odr noundef ptr @_ZNKSt12__shared_ptrIN7rocksdb11RateLimiterELN9__gnu_cxx12_Lock_policyE2EE3getEv(ptr noundef nonnull align 8 dereferenceable(16) %0) #3 comdat align 2 {
  %2 = alloca ptr, align 8
  store ptr %0, ptr %2, align 8, !tbaa !728
  %3 = load ptr, ptr %2, align 8
  %4 = getelementptr inbounds nuw %"class.std::__shared_ptr.62", ptr %3, i32 0, i32 0
  %5 = load ptr, ptr %4, align 8, !tbaa !730
  ret ptr %5
}

; Function Attrs: mustprogress uwtable
define internal void @_ZN7rocksdb12_GLOBAL__N_116AssignEnvOptionsEPNS_10EnvOptionsERKNS_9DBOptionsE(ptr noundef %0, ptr noundef nonnull align 8 dereferenceable(706) %1) #5 {
  %3 = alloca ptr, align 8
  %4 = alloca ptr, align 8
  store ptr %0, ptr %3, align 8, !tbaa !155
  store ptr %1, ptr %4, align 8, !tbaa !222
  %5 = load ptr, ptr %4, align 8, !tbaa !222
  %6 = getelementptr inbounds nuw %"struct.rocksdb::DBOptions", ptr %5, i32 0, i32 41
  %7 = load i8, ptr %6, align 8, !tbaa !281, !range !110, !noundef !111
  %8 = trunc i8 %7 to i1
  %9 = load ptr, ptr %3, align 8, !tbaa !155
  %10 = getelementptr inbounds nuw %"struct.rocksdb::EnvOptions", ptr %9, i32 0, i32 0
  %11 = zext i1 %8 to i8
  store i8 %11, ptr %10, align 8, !tbaa !273
  %12 = load ptr, ptr %4, align 8, !tbaa !222
  %13 = getelementptr inbounds nuw %"struct.rocksdb::DBOptions", ptr %12, i32 0, i32 42
  %14 = load i8, ptr %13, align 1, !tbaa !282, !range !110, !noundef !111
  %15 = trunc i8 %14 to i1
  %16 = load ptr, ptr %3, align 8, !tbaa !155
  %17 = getelementptr inbounds nuw %"struct.rocksdb::EnvOptions", ptr %16, i32 0, i32 1
  %18 = zext i1 %15 to i8
  store i8 %18, ptr %17, align 1, !tbaa !274
  %19 = load ptr, ptr %4, align 8, !tbaa !222
  %20 = getelementptr inbounds nuw %"struct.rocksdb::DBOptions", ptr %19, i32 0, i32 43
  %21 = load i8, ptr %20, align 2, !tbaa !283, !range !110, !noundef !111
  %22 = trunc i8 %21 to i1
  %23 = load ptr, ptr %3, align 8, !tbaa !155
  %24 = getelementptr inbounds nuw %"struct.rocksdb::EnvOptions", ptr %23, i32 0, i32 2
  %25 = zext i1 %22 to i8
  store i8 %25, ptr %24, align 2, !tbaa !266
  %26 = load ptr, ptr %4, align 8, !tbaa !222
  %27 = getelementptr inbounds nuw %"struct.rocksdb::DBOptions", ptr %26, i32 0, i32 46
  %28 = load i8, ptr %27, align 1, !tbaa !284, !range !110, !noundef !111
  %29 = trunc i8 %28 to i1
  %30 = load ptr, ptr %3, align 8, !tbaa !155
  %31 = getelementptr inbounds nuw %"struct.rocksdb::EnvOptions", ptr %30, i32 0, i32 5
  %32 = zext i1 %29 to i8
  store i8 %32, ptr %31, align 1, !tbaa !276
  %33 = load ptr, ptr %4, align 8, !tbaa !222
  %34 = getelementptr inbounds nuw %"struct.rocksdb::DBOptions", ptr %33, i32 0, i32 61
  %35 = load i64, ptr %34, align 8, !tbaa !285
  %36 = load ptr, ptr %3, align 8, !tbaa !155
  %37 = getelementptr inbounds nuw %"struct.rocksdb::EnvOptions", ptr %36, i32 0, i32 6
  store i64 %35, ptr %37, align 8, !tbaa !264
  %38 = load ptr, ptr %4, align 8, !tbaa !222
  %39 = getelementptr inbounds nuw %"struct.rocksdb::DBOptions", ptr %38, i32 0, i32 57
  %40 = load i64, ptr %39, align 8, !tbaa !286
  %41 = load ptr, ptr %3, align 8, !tbaa !155
  %42 = getelementptr inbounds nuw %"struct.rocksdb::EnvOptions", ptr %41, i32 0, i32 9
  store i64 %40, ptr %42, align 8, !tbaa !279
  %43 = load ptr, ptr %4, align 8, !tbaa !222
  %44 = getelementptr inbounds nuw %"struct.rocksdb::DBOptions", ptr %43, i32 0, i32 11
  %45 = call noundef ptr @_ZNKSt12__shared_ptrIN7rocksdb11RateLimiterELN9__gnu_cxx12_Lock_policyE2EE3getEv(ptr noundef nonnull align 8 dereferenceable(16) %44) #4
  %46 = load ptr, ptr %3, align 8, !tbaa !155
  %47 = getelementptr inbounds nuw %"struct.rocksdb::EnvOptions", ptr %46, i32 0, i32 11
  store ptr %45, ptr %47, align 8, !tbaa !280
  %48 = load ptr, ptr %4, align 8, !tbaa !222
  %49 = getelementptr inbounds nuw %"struct.rocksdb::DBOptions", ptr %48, i32 0, i32 58
  %50 = load i64, ptr %49, align 8, !tbaa !265
  %51 = load ptr, ptr %3, align 8, !tbaa !155
  %52 = getelementptr inbounds nuw %"struct.rocksdb::EnvOptions", ptr %51, i32 0, i32 10
  store i64 %50, ptr %52, align 8, !tbaa !93
  %53 = load ptr, ptr %4, align 8, !tbaa !222
  %54 = getelementptr inbounds nuw %"struct.rocksdb::DBOptions", ptr %53, i32 0, i32 45
  %55 = load i8, ptr %54, align 4, !tbaa !287, !range !110, !noundef !111
  %56 = trunc i8 %55 to i1
  %57 = load ptr, ptr %3, align 8, !tbaa !155
  %58 = getelementptr inbounds nuw %"struct.rocksdb::EnvOptions", ptr %57, i32 0, i32 4
  %59 = zext i1 %56 to i8
  store i8 %59, ptr %58, align 4, !tbaa !275
  %60 = load ptr, ptr %4, align 8, !tbaa !222
  %61 = getelementptr inbounds nuw %"struct.rocksdb::DBOptions", ptr %60, i32 0, i32 63
  %62 = load i8, ptr %61, align 8, !tbaa !288, !range !110, !noundef !111
  %63 = trunc i8 %62 to i1
  %64 = load ptr, ptr %3, align 8, !tbaa !155
  %65 = getelementptr inbounds nuw %"struct.rocksdb::EnvOptions", ptr %64, i32 0, i32 7
  %66 = zext i1 %63 to i8
  store i8 %66, ptr %65, align 8, !tbaa !277
  %67 = load ptr, ptr %4, align 8, !tbaa !222
  %68 = getelementptr inbounds nuw %"struct.rocksdb::DBOptions", ptr %67, i32 0, i32 10
  %69 = load ptr, ptr %68, align 8, !tbaa !289
  %70 = load ptr, ptr %3, align 8, !tbaa !155
  %71 = load ptr, ptr %69, align 8, !tbaa !52
  %72 = getelementptr inbounds ptr, ptr %71, i64 84
  %73 = load ptr, ptr %72, align 8
  call void %73(ptr noundef nonnull align 8 dereferenceable(72) %69, ptr noundef %70)
  ret void
}

; Function Attrs: mustprogress uwtable
define void @_ZN7rocksdb10EnvOptionsC2ERKNS_9DBOptionsE(ptr noundef nonnull align 8 dereferenceable(48) %0, ptr noundef nonnull align 8 dereferenceable(706) %1) unnamed_addr #5 align 2 {
  %3 = alloca ptr, align 8
  %4 = alloca ptr, align 8
  store ptr %0, ptr %3, align 8, !tbaa !155
  store ptr %1, ptr %4, align 8, !tbaa !222
  %5 = load ptr, ptr %3, align 8
  %6 = getelementptr inbounds nuw %"struct.rocksdb::EnvOptions", ptr %5, i32 0, i32 0
  store i8 0, ptr %6, align 8, !tbaa !273
  %7 = getelementptr inbounds nuw %"struct.rocksdb::EnvOptions", ptr %5, i32 0, i32 1
  store i8 1, ptr %7, align 1, !tbaa !274
  %8 = getelementptr inbounds nuw %"struct.rocksdb::EnvOptions", ptr %5, i32 0, i32 2
  store i8 0, ptr %8, align 2, !tbaa !266
  %9 = getelementptr inbounds nuw %"struct.rocksdb::EnvOptions", ptr %5, i32 0, i32 3
  store i8 0, ptr %9, align 1, !tbaa !271
  %10 = getelementptr inbounds nuw %"struct.rocksdb::EnvOptions", ptr %5, i32 0, i32 4
  store i8 1, ptr %10, align 4, !tbaa !275
  %11 = getelementptr inbounds nuw %"struct.rocksdb::EnvOptions", ptr %5, i32 0, i32 5
  store i8 1, ptr %11, align 1, !tbaa !276
  %12 = getelementptr inbounds nuw %"struct.rocksdb::EnvOptions", ptr %5, i32 0, i32 6
  store i64 0, ptr %12, align 8, !tbaa !264
  %13 = getelementptr inbounds nuw %"struct.rocksdb::EnvOptions", ptr %5, i32 0, i32 7
  store i8 0, ptr %13, align 8, !tbaa !277
  %14 = getelementptr inbounds nuw %"struct.rocksdb::EnvOptions", ptr %5, i32 0, i32 8
  store i8 1, ptr %14, align 1, !tbaa !278
  %15 = getelementptr inbounds nuw %"struct.rocksdb::EnvOptions", ptr %5, i32 0, i32 9
  store i64 0, ptr %15, align 8, !tbaa !279
  %16 = getelementptr inbounds nuw %"struct.rocksdb::EnvOptions", ptr %5, i32 0, i32 10
  store i64 1048576, ptr %16, align 8, !tbaa !93
  %17 = getelementptr inbounds nuw %"struct.rocksdb::EnvOptions", ptr %5, i32 0, i32 11
  store ptr null, ptr %17, align 8, !tbaa !280
  %18 = load ptr, ptr %4, align 8, !tbaa !222
  call void @_ZN7rocksdb12_GLOBAL__N_116AssignEnvOptionsEPNS_10EnvOptionsERKNS_9DBOptionsE(ptr noundef %5, ptr noundef nonnull align 8 dereferenceable(706) %18)
  ret void
}